target datalayout = "e-m:e-p270:32:32-p271:32:32-p272:64:64-i64:64-i128:128-f80:128-n8:16:32:64-S128"
target triple = "x86_64-pc-linux-gnu"

%struct.strvec = type { ptr, i64, i64 }
%struct.repository = type { ptr, ptr, ptr, ptr, ptr, %struct.strmap, %struct.strmap, %struct.repo_path_cache, ptr, ptr, ptr, ptr, %struct.repo_settings, ptr, ptr, ptr, ptr, ptr, ptr, i32, i32, i32, ptr, ptr, i32, i32, i8 }
%struct.strmap = type { %struct.hashmap, ptr, i8 }
%struct.hashmap = type { ptr, ptr, ptr, i32, i32, i32, i32, i8 }
%struct.repo_path_cache = type { ptr, ptr, ptr, ptr, ptr, ptr, ptr }
%struct.repo_settings = type { i32, i32, i32, i32, i32, i32, i32, i32, i32, i32, i32, i32, ptr, i32, i32, i32, i32, i32, i32, i32, i64, i64, i64 }
%struct.hashmap_entry = type { ptr, i32 }
%struct.object_id = type { [32 x i8], i32 }
%struct.index_state = type { ptr, i32, i32, i32, i32, ptr, ptr, ptr, %struct.cache_time, i8, i32, %struct.hashmap, %struct.hashmap, %struct.object_id, ptr, ptr, ptr, ptr, ptr, ptr, ptr }
%struct.cache_time = type { i32, i32 }
%struct.stat_data = type { %struct.cache_time, %struct.cache_time, i32, i32, i32, i32, i32 }
%struct.cache_entry = type { %struct.hashmap_entry, %struct.stat_data, i32, i32, i32, i32, i32, %struct.object_id, [0 x i8] }

@the_repository = external global ptr, align 8
@core_sparse_checkout_cone = external global i32, align 4
@.str.48 = private unnamed_addr constant [56 x i8] c"please run from the toplevel directory in non-cone mode\00", align 1
@.str.49 = private unnamed_addr constant [60 x i8] c"specify directories rather than patterns (no leading slash)\00", align 1
@.str.50 = private unnamed_addr constant [99 x i8] c"specify directories rather than patterns.  If your directory starts with a '!', pass --skip-checks\00", align 1
@.str.51 = private unnamed_addr constant [5 x i8] c"*?[]\00", align 1
@.str.52 = private unnamed_addr constant [113 x i8] c"specify directories rather than patterns.  If your directory really has any of '*?[]\\' in it, pass --skip-checks\00", align 1
@.str.53 = private unnamed_addr constant [85 x i8] c"'%s' is not a directory; to treat it as a directory anyway, rerun with --skip-checks\00", align 1
@.str.54 = private unnamed_addr constant [132 x i8] c"pass a leading slash before paths such as '%s' if you want a single file (see NON-CONE PROBLEMS in the git-sparse-checkout manual).\00", align 1

; Function Attrs: nounwind uwtable
define internal void @sanitize_paths(ptr noundef %0, ptr noundef %1, i32 noundef %2) #0 {
  %4 = alloca ptr, align 8
  %5 = alloca ptr, align 8
  %6 = alloca i32, align 4
  %7 = alloca i32, align 4
  %8 = alloca i32, align 4
  %9 = alloca i32, align 4
  %10 = alloca ptr, align 8
  %11 = alloca ptr, align 8
  %12 = alloca ptr, align 8
  %13 = alloca i32, align 4
  store ptr %0, ptr %4, align 8, !tbaa !163
  store ptr %1, ptr %5, align 8, !tbaa !11
  store i32 %2, ptr %6, align 4, !tbaa !4
  call void @llvm.lifetime.start.p0(i64 4, ptr %7) #9
  %14 = load ptr, ptr %4, align 8, !tbaa !163
  %15 = getelementptr inbounds nuw %struct.strvec, ptr %14, i32 0, i32 1
  %16 = load i64, ptr %15, align 8, !tbaa !165
  %17 = icmp ne i64 %16, 0
  br i1 %17, label %19, label %18

18:                                               ; preds = %3
  store i32 1, ptr %8, align 4
  br label %210

19:                                               ; preds = %3
  %20 = load ptr, ptr %5, align 8, !tbaa !11
  %21 = icmp ne ptr %20, null
  br i1 %21, label %22, label %62

22:                                               ; preds = %19
  %23 = load ptr, ptr %5, align 8, !tbaa !11
  %24 = load i8, ptr %23, align 1, !tbaa !90
  %25 = sext i8 %24 to i32
  %26 = icmp ne i32 %25, 0
  br i1 %26, label %27, label %62

27:                                               ; preds = %22
  %28 = load i32, ptr @core_sparse_checkout_cone, align 4, !tbaa !4
  %29 = icmp ne i32 %28, 0
  br i1 %29, label %30, label %62

30:                                               ; preds = %27
  call void @llvm.lifetime.start.p0(i64 4, ptr %9) #9
  %31 = load ptr, ptr %5, align 8, !tbaa !11
  %32 = call i64 @strlen(ptr noundef %31) #11
  %33 = trunc i64 %32 to i32
  store i32 %33, ptr %9, align 4, !tbaa !4
  store i32 0, ptr %7, align 4, !tbaa !4
  br label %34

34:                                               ; preds = %58, %30
  %35 = load i32, ptr %7, align 4, !tbaa !4
  %36 = sext i32 %35 to i64
  %37 = load ptr, ptr %4, align 8, !tbaa !163
  %38 = getelementptr inbounds nuw %struct.strvec, ptr %37, i32 0, i32 1
  %39 = load i64, ptr %38, align 8, !tbaa !165
  %40 = icmp ult i64 %36, %39
  br i1 %40, label %41, label %61

41:                                               ; preds = %34
  call void @llvm.lifetime.start.p0(i64 8, ptr %10) #9
  %42 = load ptr, ptr %5, align 8, !tbaa !11
  %43 = load i32, ptr %9, align 4, !tbaa !4
  %44 = load ptr, ptr %4, align 8, !tbaa !163
  %45 = getelementptr inbounds nuw %struct.strvec, ptr %44, i32 0, i32 0
  %46 = load ptr, ptr %45, align 8, !tbaa !149
  %47 = load i32, ptr %7, align 4, !tbaa !4
  %48 = sext i32 %47 to i64
  %49 = getelementptr inbounds ptr, ptr %46, i64 %48
  %50 = load ptr, ptr %49, align 8, !tbaa !11
  %51 = call ptr @prefix_path(ptr noundef %42, i32 noundef %43, ptr noundef %50)
  store ptr %51, ptr %10, align 8, !tbaa !11
  %52 = load ptr, ptr %4, align 8, !tbaa !163
  %53 = load i32, ptr %7, align 4, !tbaa !4
  %54 = sext i32 %53 to i64
  %55 = load ptr, ptr %10, align 8, !tbaa !11
  %56 = call ptr @strvec_replace(ptr noundef %52, i64 noundef %54, ptr noundef %55)
  %57 = load ptr, ptr %10, align 8, !tbaa !11
  call void @free(ptr noundef %57) #9
  call void @llvm.lifetime.end.p0(i64 8, ptr %10) #9
  br label %58

58:                                               ; preds = %41
  %59 = load i32, ptr %7, align 4, !tbaa !4
  %60 = add nsw i32 %59, 1
  store i32 %60, ptr %7, align 4, !tbaa !4
  br label %34, !llvm.loop !166

61:                                               ; preds = %34
  call void @llvm.lifetime.end.p0(i64 4, ptr %9) #9
  br label %62

62:                                               ; preds = %61, %27, %22, %19
  %63 = load i32, ptr %6, align 4, !tbaa !4
  %64 = icmp ne i32 %63, 0
  br i1 %64, label %65, label %66

65:                                               ; preds = %62
  store i32 1, ptr %8, align 4
  br label %210

66:                                               ; preds = %62
  %67 = load ptr, ptr %5, align 8, !tbaa !11
  %68 = icmp ne ptr %67, null
  br i1 %68, label %69, label %79

69:                                               ; preds = %66
  %70 = load ptr, ptr %5, align 8, !tbaa !11
  %71 = load i8, ptr %70, align 1, !tbaa !90
  %72 = sext i8 %71 to i32
  %73 = icmp ne i32 %72, 0
  br i1 %73, label %74, label %79

74:                                               ; preds = %69
  %75 = load i32, ptr @core_sparse_checkout_cone, align 4, !tbaa !4
  %76 = icmp ne i32 %75, 0
  br i1 %76, label %79, label %77

77:                                               ; preds = %74
  %78 = call ptr @_(ptr noundef @.str.48)
  call void (ptr, ...) @die(ptr noundef %78) #10
  unreachable

79:                                               ; preds = %74, %69, %66
  %80 = load i32, ptr @core_sparse_checkout_cone, align 4, !tbaa !4
  %81 = icmp ne i32 %80, 0
  br i1 %81, label %82, label %135

82:                                               ; preds = %79
  store i32 0, ptr %7, align 4, !tbaa !4
  br label %83

83:                                               ; preds = %131, %82
  %84 = load i32, ptr %7, align 4, !tbaa !4
  %85 = sext i32 %84 to i64
  %86 = load ptr, ptr %4, align 8, !tbaa !163
  %87 = getelementptr inbounds nuw %struct.strvec, ptr %86, i32 0, i32 1
  %88 = load i64, ptr %87, align 8, !tbaa !165
  %89 = icmp ult i64 %85, %88
  br i1 %89, label %90, label %134

90:                                               ; preds = %83
  %91 = load ptr, ptr %4, align 8, !tbaa !163
  %92 = getelementptr inbounds nuw %struct.strvec, ptr %91, i32 0, i32 0
  %93 = load ptr, ptr %92, align 8, !tbaa !149
  %94 = load i32, ptr %7, align 4, !tbaa !4
  %95 = sext i32 %94 to i64
  %96 = getelementptr inbounds ptr, ptr %93, i64 %95
  %97 = load ptr, ptr %96, align 8, !tbaa !11
  %98 = getelementptr inbounds i8, ptr %97, i64 0
  %99 = load i8, ptr %98, align 1, !tbaa !90
  %100 = sext i8 %99 to i32
  %101 = icmp eq i32 %100, 47
  br i1 %101, label %102, label %104

102:                                              ; preds = %90
  %103 = call ptr @_(ptr noundef @.str.49)
  call void (ptr, ...) @die(ptr noundef %103) #10
  unreachable

104:                                              ; preds = %90
  %105 = load ptr, ptr %4, align 8, !tbaa !163
  %106 = getelementptr inbounds nuw %struct.strvec, ptr %105, i32 0, i32 0
  %107 = load ptr, ptr %106, align 8, !tbaa !149
  %108 = load i32, ptr %7, align 4, !tbaa !4
  %109 = sext i32 %108 to i64
  %110 = getelementptr inbounds ptr, ptr %107, i64 %109
  %111 = load ptr, ptr %110, align 8, !tbaa !11
  %112 = getelementptr inbounds i8, ptr %111, i64 0
  %113 = load i8, ptr %112, align 1, !tbaa !90
  %114 = sext i8 %113 to i32
  %115 = icmp eq i32 %114, 33
  br i1 %115, label %116, label %118

116:                                              ; preds = %104
  %117 = call ptr @_(ptr noundef @.str.50)
  call void (ptr, ...) @die(ptr noundef %117) #10
  unreachable

118:                                              ; preds = %104
  %119 = load ptr, ptr %4, align 8, !tbaa !163
  %120 = getelementptr inbounds nuw %struct.strvec, ptr %119, i32 0, i32 0
  %121 = load ptr, ptr %120, align 8, !tbaa !149
  %122 = load i32, ptr %7, align 4, !tbaa !4
  %123 = sext i32 %122 to i64
  %124 = getelementptr inbounds ptr, ptr %121, i64 %123
  %125 = load ptr, ptr %124, align 8, !tbaa !11
  %126 = call ptr @strpbrk(ptr noundef %125, ptr noundef @.str.51) #11
  %127 = icmp ne ptr %126, null
  br i1 %127, label %128, label %130

128:                                              ; preds = %118
  %129 = call ptr @_(ptr noundef @.str.52)
  call void (ptr, ...) @die(ptr noundef %129) #10
  unreachable

130:                                              ; preds = %118
  br label %131

131:                                              ; preds = %130
  %132 = load i32, ptr %7, align 4, !tbaa !4
  %133 = add nsw i32 %132, 1
  store i32 %133, ptr %7, align 4, !tbaa !4
  br label %83, !llvm.loop !167

134:                                              ; preds = %83
  br label %135

135:                                              ; preds = %134, %79
  store i32 0, ptr %7, align 4, !tbaa !4
  br label %136

136:                                              ; preds = %206, %135
  %137 = load i32, ptr %7, align 4, !tbaa !4
  %138 = sext i32 %137 to i64
  %139 = load ptr, ptr %4, align 8, !tbaa !163
  %140 = getelementptr inbounds nuw %struct.strvec, ptr %139, i32 0, i32 1
  %141 = load i64, ptr %140, align 8, !tbaa !165
  %142 = icmp ult i64 %138, %141
  br i1 %142, label %143, label %209

143:                                              ; preds = %136
  call void @llvm.lifetime.start.p0(i64 8, ptr %11) #9
  call void @llvm.lifetime.start.p0(i64 8, ptr %12) #9
  %144 = load ptr, ptr @the_repository, align 8, !tbaa !13
  %145 = getelementptr inbounds nuw %struct.repository, ptr %144, i32 0, i32 15
  %146 = load ptr, ptr %145, align 8, !tbaa !105
  store ptr %146, ptr %12, align 8, !tbaa !168
  call void @llvm.lifetime.start.p0(i64 4, ptr %13) #9
  %147 = load ptr, ptr %12, align 8, !tbaa !168
  %148 = load ptr, ptr %4, align 8, !tbaa !163
  %149 = getelementptr inbounds nuw %struct.strvec, ptr %148, i32 0, i32 0
  %150 = load ptr, ptr %149, align 8, !tbaa !149
  %151 = load i32, ptr %7, align 4, !tbaa !4
  %152 = sext i32 %151 to i64
  %153 = getelementptr inbounds ptr, ptr %150, i64 %152
  %154 = load ptr, ptr %153, align 8, !tbaa !11
  %155 = load ptr, ptr %4, align 8, !tbaa !163
  %156 = getelementptr inbounds nuw %struct.strvec, ptr %155, i32 0, i32 0
  %157 = load ptr, ptr %156, align 8, !tbaa !149
  %158 = load i32, ptr %7, align 4, !tbaa !4
  %159 = sext i32 %158 to i64
  %160 = getelementptr inbounds ptr, ptr %157, i64 %159
  %161 = load ptr, ptr %160, align 8, !tbaa !11
  %162 = call i64 @strlen(ptr noundef %161) #11
  %163 = trunc i64 %162 to i32
  %164 = call i32 @index_name_pos(ptr noundef %147, ptr noundef %154, i32 noundef %163)
  store i32 %164, ptr %13, align 4, !tbaa !4
  %165 = load i32, ptr %13, align 4, !tbaa !4
  %166 = icmp slt i32 %165, 0
  br i1 %166, label %167, label %168

167:                                              ; preds = %143
  store i32 10, ptr %8, align 4
  br label %203

168:                                              ; preds = %143
  %169 = load ptr, ptr %12, align 8, !tbaa !168
  %170 = getelementptr inbounds nuw %struct.index_state, ptr %169, i32 0, i32 0
  %171 = load ptr, ptr %170, align 8, !tbaa !137
  %172 = load i32, ptr %13, align 4, !tbaa !4
  %173 = sext i32 %172 to i64
  %174 = getelementptr inbounds ptr, ptr %171, i64 %173
  %175 = load ptr, ptr %174, align 8, !tbaa !138
  store ptr %175, ptr %11, align 8, !tbaa !138
  %176 = load ptr, ptr %11, align 8, !tbaa !138
  %177 = getelementptr inbounds nuw %struct.cache_entry, ptr %176, i32 0, i32 2
  %178 = load i32, ptr %177, align 4, !tbaa !4
  %179 = icmp eq i32 %178, 16384
  br i1 %179, label %180, label %181

180:                                              ; preds = %168
  store i32 10, ptr %8, align 4
  br label %203

181:                                              ; preds = %168
  %182 = load i32, ptr @core_sparse_checkout_cone, align 4, !tbaa !4
  %183 = icmp ne i32 %182, 0
  br i1 %183, label %184, label %193

184:                                              ; preds = %181
  %185 = call ptr @_(ptr noundef @.str.53)
  %186 = load ptr, ptr %4, align 8, !tbaa !163
  %187 = getelementptr inbounds nuw %struct.strvec, ptr %186, i32 0, i32 0
  %188 = load ptr, ptr %187, align 8, !tbaa !149
  %189 = load i32, ptr %7, align 4, !tbaa !4
  %190 = sext i32 %189 to i64
  %191 = getelementptr inbounds ptr, ptr %188, i64 %190
  %192 = load ptr, ptr %191, align 8, !tbaa !11
  call void (ptr, ...) @die(ptr noundef %185, ptr noundef %192) #10
  unreachable

193:                                              ; preds = %181
  %194 = call ptr @_(ptr noundef @.str.54)
  %195 = load ptr, ptr %4, align 8, !tbaa !163
  %196 = getelementptr inbounds nuw %struct.strvec, ptr %195, i32 0, i32 0
  %197 = load ptr, ptr %196, align 8, !tbaa !149
  %198 = load i32, ptr %7, align 4, !tbaa !4
  %199 = sext i32 %198 to i64
  %200 = getelementptr inbounds ptr, ptr %197, i64 %199
  %201 = load ptr, ptr %200, align 8, !tbaa !11
  call void (ptr, ...) @warning(ptr noundef %194, ptr noundef %201)
  br label %202

202:                                              ; preds = %193
  store i32 0, ptr %8, align 4
  br label %203

203:                                              ; preds = %202, %180, %167
  call void @llvm.lifetime.end.p0(i64 4, ptr %13) #9
  call void @llvm.lifetime.end.p0(i64 8, ptr %12) #9
  call void @llvm.lifetime.end.p0(i64 8, ptr %11) #9
  %204 = load i32, ptr %8, align 4
  switch i32 %204, label %213 [
    i32 0, label %205
    i32 10, label %206
  ]

205:                                              ; preds = %203
  br label %206

206:                                              ; preds = %205, %203
  %207 = load i32, ptr %7, align 4, !tbaa !4
  %208 = add nsw i32 %207, 1
  store i32 %208, ptr %7, align 4, !tbaa !4
  br label %136, !llvm.loop !169

209:                                              ; preds = %136
  store i32 0, ptr %8, align 4
  br label %210

210:                                              ; preds = %209, %65, %18
  call void @llvm.lifetime.end.p0(i64 4, ptr %7) #9
  %211 = load i32, ptr %8, align 4
  switch i32 %211, label %213 [
    i32 0, label %212
    i32 1, label %212
  ]

212:                                              ; preds = %210, %210
  ret void

213:                                              ; preds = %210, %203
  unreachable
}