; Function Attrs: nounwind uwtable
define internal fastcc void @sanitize_paths(ptr noundef nonnull %0, ptr noundef %1, i32 noundef %2) unnamed_addr #0 {
  %4 = getelementptr inbounds nuw i8, ptr %0, i64 8
  %5 = load i64, ptr %4, align 8, !tbaa !140
  %.not = icmp eq i64 %5, 0
  br i1 %.not, label %.loopexit, label %6

6:                                                ; preds = %3
  %.not52 = icmp eq ptr %1, null
  br i1 %.not52, label %.thread59, label %7

7:                                                ; preds = %6
  %8 = load i8, ptr %1, align 1, !tbaa !99
  %9 = icmp ne i8 %8, 0
  %10 = load i32, ptr @core_sparse_checkout_cone, align 4
  %11 = icmp ne i32 %10, 0
  %or.cond = select i1 %9, i1 %11, i1 false
  br i1 %or.cond, label %.lr.ph.preheader, label %.thread

.lr.ph.preheader:                                 ; preds = %7
  %12 = tail call i64 @strlen(ptr noundef nonnull dereferenceable(1) %1) #15
  %13 = trunc i64 %12 to i32
  br label %.lr.ph

.lr.ph:                                           ; preds = %.lr.ph.preheader, %.lr.ph
  %indvars.iv = phi i64 [ 0, %.lr.ph.preheader ], [ %indvars.iv.next, %.lr.ph ]
  %14 = load ptr, ptr %0, align 8, !tbaa !130
  %15 = getelementptr inbounds nuw ptr, ptr %14, i64 %indvars.iv
  %16 = load ptr, ptr %15, align 8, !tbaa !68
  %17 = tail call ptr @prefix_path(ptr noundef nonnull %1, i32 noundef %13, ptr noundef %16) #13
  %18 = tail call ptr @strvec_replace(ptr noundef nonnull %0, i64 noundef %indvars.iv, ptr noundef %17) #13
  tail call void @free(ptr noundef %17) #13
  %indvars.iv.next = add nuw nsw i64 %indvars.iv, 1
  %19 = load i64, ptr %4, align 8, !tbaa !140
  %20 = icmp ugt i64 %19, %indvars.iv.next
  br i1 %20, label %.lr.ph, label %._crit_edge, !llvm.loop !141

._crit_edge:                                      ; preds = %.lr.ph
  %.not53 = icmp eq i32 %2, 0
  br i1 %.not53, label %._crit_edge..thread58_crit_edge, label %.loopexit

._crit_edge..thread58_crit_edge:                  ; preds = %._crit_edge
  %.pre = load i8, ptr %1, align 1, !tbaa !99
  %.pre81 = load i32, ptr @core_sparse_checkout_cone, align 4
  br label %.thread58

.thread59:                                        ; preds = %6
  %.not5360 = icmp eq i32 %2, 0
  br i1 %.not5360, label %thread-pre-split, label %.loopexit

.thread:                                          ; preds = %7
  %.not5357 = icmp eq i32 %2, 0
  br i1 %.not5357, label %.thread58, label %.loopexit

.thread58:                                        ; preds = %._crit_edge..thread58_crit_edge, %.thread
  %21 = phi i64 [ %19, %._crit_edge..thread58_crit_edge ], [ %5, %.thread ]
  %22 = phi i32 [ %.pre81, %._crit_edge..thread58_crit_edge ], [ %10, %.thread ]
  %23 = phi i8 [ %.pre, %._crit_edge..thread58_crit_edge ], [ %8, %.thread ]
  %24 = icmp eq i8 %23, 0
  %25 = icmp ne i32 %22, 0
  %or.cond3 = select i1 %24, i1 true, i1 %25
  br i1 %or.cond3, label %28, label %26

26:                                               ; preds = %.thread58
  %27 = tail call fastcc ptr @_(ptr noundef nonnull @.str.48)
  tail call void (ptr, ...) @die(ptr noundef %27) #14
  unreachable

thread-pre-split:                                 ; preds = %.thread59
  %.pr = load i32, ptr @core_sparse_checkout_cone, align 4, !tbaa !37
  br label %28

28:                                               ; preds = %thread-pre-split, %.thread58
  %29 = phi i64 [ %5, %thread-pre-split ], [ %21, %.thread58 ]
  %30 = phi i32 [ %.pr, %thread-pre-split ], [ %22, %.thread58 ]
  %.not54 = icmp eq i32 %30, 0
  %.not72 = icmp eq i64 %29, 0
  br i1 %.not54, label %.loopexit62, label %.preheader

.preheader:                                       ; preds = %28
  br i1 %.not72, label %.loopexit, label %.lr.ph66

.lr.ph66:                                         ; preds = %.preheader
  %31 = load ptr, ptr %0, align 8, !tbaa !130
  br label %33

32:                                               ; preds = %41
  %indvars.iv.next76 = add nuw i64 %indvars.iv75, 1
  %exitcond.not = icmp eq i64 %indvars.iv.next76, %29
  br i1 %exitcond.not, label %.lr.ph69.preheader, label %33, !llvm.loop !142

33:                                               ; preds = %.lr.ph66, %32
  %indvars.iv75 = phi i64 [ 0, %.lr.ph66 ], [ %indvars.iv.next76, %32 ]
  %34 = getelementptr inbounds nuw ptr, ptr %31, i64 %indvars.iv75
  %35 = load ptr, ptr %34, align 8, !tbaa !68
  %36 = load i8, ptr %35, align 1, !tbaa !99
  switch i8 %36, label %41 [
    i8 47, label %37
    i8 33, label %39
  ]

37:                                               ; preds = %33
  %38 = tail call fastcc ptr @_(ptr noundef nonnull @.str.49)
  tail call void (ptr, ...) @die(ptr noundef %38) #14
  unreachable

39:                                               ; preds = %33
  %40 = tail call fastcc ptr @_(ptr noundef nonnull @.str.50)
  tail call void (ptr, ...) @die(ptr noundef %40) #14
  unreachable

41:                                               ; preds = %33
  %42 = tail call ptr @strpbrk(ptr noundef nonnull %35, ptr noundef nonnull @.str.51) #15
  %.not56 = icmp eq ptr %42, null
  br i1 %.not56, label %32, label %43

43:                                               ; preds = %41
  %44 = tail call fastcc ptr @_(ptr noundef nonnull @.str.52)
  tail call void (ptr, ...) @die(ptr noundef %44) #14
  unreachable

.loopexit62:                                      ; preds = %28
  br i1 %.not72, label %.loopexit, label %.lr.ph69.preheader

.lr.ph69.preheader:                               ; preds = %32, %.loopexit62
  br label %.lr.ph69

.lr.ph69:                                         ; preds = %.lr.ph69.preheader, %77
  %indvars.iv78 = phi i64 [ %indvars.iv.next79, %77 ], [ 0, %.lr.ph69.preheader ]
  %45 = load ptr, ptr @the_repository, align 8, !tbaa !17
  %46 = getelementptr inbounds nuw i8, ptr %45, i64 384
  %47 = load ptr, ptr %46, align 8, !tbaa !83
  %48 = load ptr, ptr %0, align 8, !tbaa !130
  %49 = getelementptr inbounds nuw ptr, ptr %48, i64 %indvars.iv78
  %50 = load ptr, ptr %49, align 8, !tbaa !68
  %51 = tail call i64 @strlen(ptr noundef nonnull dereferenceable(1) %50) #15
  %52 = trunc i64 %51 to i32
  %53 = tail call i32 @index_name_pos(ptr noundef %47, ptr noundef nonnull %50, i32 noundef %52) #13
  %54 = icmp slt i32 %53, 0
  br i1 %54, label %77, label %55

55:                                               ; preds = %.lr.ph69
  %56 = load ptr, ptr %47, align 8, !tbaa !120
  %57 = zext nneg i32 %53 to i64
  %58 = getelementptr inbounds nuw ptr, ptr %56, i64 %57
  %59 = load ptr, ptr %58, align 8, !tbaa !121
  %60 = getelementptr inbounds nuw i8, ptr %59, i64 52
  %61 = load i32, ptr %60, align 4, !tbaa !37
  %62 = icmp eq i32 %61, 16384
  br i1 %62, label %77, label %63

63:                                               ; preds = %55
  %64 = load i32, ptr @core_sparse_checkout_cone, align 4, !tbaa !37
  %.not55 = icmp eq i32 %64, 0
  br i1 %.not55, label %70, label %65

65:                                               ; preds = %63
  %66 = tail call fastcc ptr @_(ptr noundef nonnull @.str.53)
  %67 = load ptr, ptr %0, align 8, !tbaa !130
  %68 = getelementptr inbounds nuw ptr, ptr %67, i64 %indvars.iv78
  %69 = load ptr, ptr %68, align 8, !tbaa !68
  tail call void (ptr, ...) @die(ptr noundef %66, ptr noundef %69) #14
  unreachable

70:                                               ; preds = %63
  %71 = load i32, ptr @git_gettext_enabled, align 4, !tbaa !37
  %.not4.i = icmp eq i32 %71, 0
  br i1 %.not4.i, label %_.exit, label %72

72:                                               ; preds = %70
  %73 = tail call ptr @dcgettext(ptr noundef null, ptr noundef nonnull @.str.54, i32 noundef 5) #13
  br label %_.exit

_.exit:                                           ; preds = %70, %72
  %.0.i = phi ptr [ %73, %72 ], [ @.str.54, %70 ]
  %74 = load ptr, ptr %0, align 8, !tbaa !130
  %75 = getelementptr inbounds nuw ptr, ptr %74, i64 %indvars.iv78
  %76 = load ptr, ptr %75, align 8, !tbaa !68
  tail call void (ptr, ...) @warning(ptr noundef %.0.i, ptr noundef %76) #13
  br label %77

77:                                               ; preds = %55, %.lr.ph69, %_.exit
  %indvars.iv.next79 = add nuw nsw i64 %indvars.iv78, 1
  %78 = load i64, ptr %4, align 8, !tbaa !140
  %79 = icmp ugt i64 %78, %indvars.iv.next79
  br i1 %79, label %.lr.ph69, label %.loopexit, !llvm.loop !143

.loopexit:                                        ; preds = %77, %.preheader, %.loopexit62, %.thread59, %.thread, %._crit_edge, %3
  ret void
}